target datalayout = "e-m:e-p270:32:32-p271:32:32-p272:64:64-i64:64-i128:128-f80:128-n8:16:32:64-S128"
target triple = "x86_64-pc-linux-gnu"

%struct.tsi_frame_protector = type { ptr }
%struct.tsi_frame_protector_vtable = type { ptr, ptr, ptr, ptr }

; Function Attrs: mustprogress uwtable
define noundef i32 @_Z33tsi_frame_protector_protect_flushP19tsi_frame_protectorPhPmS2_(ptr noundef %0, ptr noundef %1, ptr noundef %2, ptr noundef %3) #5 {
  %5 = alloca i32, align 4
  %6 = alloca ptr, align 8
  %7 = alloca ptr, align 8
  %8 = alloca ptr, align 8
  %9 = alloca ptr, align 8
  store ptr %0, ptr %6, align 8, !tbaa !9
  store ptr %1, ptr %7, align 8, !tbaa !12
  store ptr %2, ptr %8, align 8, !tbaa !14
  store ptr %3, ptr %9, align 8, !tbaa !14
  %10 = load ptr, ptr %6, align 8, !tbaa !9
  %11 = icmp eq ptr %10, null
  br i1 %11, label %26, label %12

12:                                               ; preds = %4
  %13 = load ptr, ptr %6, align 8, !tbaa !9
  %14 = getelementptr inbounds nuw %struct.tsi_frame_protector, ptr %13, i32 0, i32 0
  %15 = load ptr, ptr %14, align 8, !tbaa !16
  %16 = icmp eq ptr %15, null
  br i1 %16, label %26, label %17

17:                                               ; preds = %12
  %18 = load ptr, ptr %7, align 8, !tbaa !12
  %19 = icmp eq ptr %18, null
  br i1 %19, label %26, label %20

20:                                               ; preds = %17
  %21 = load ptr, ptr %8, align 8, !tbaa !14
  %22 = icmp eq ptr %21, null
  br i1 %22, label %26, label %23

23:                                               ; preds = %20
  %24 = load ptr, ptr %9, align 8, !tbaa !14
  %25 = icmp eq ptr %24, null
  br i1 %25, label %26, label %27

26:                                               ; preds = %23, %20, %17, %12, %4
  store i32 2, ptr %5, align 4
  br label %46

27:                                               ; preds = %23
  %28 = load ptr, ptr %6, align 8, !tbaa !9
  %29 = getelementptr inbounds nuw %struct.tsi_frame_protector, ptr %28, i32 0, i32 0
  %30 = load ptr, ptr %29, align 8, !tbaa !16
  %31 = getelementptr inbounds nuw %struct.tsi_frame_protector_vtable, ptr %30, i32 0, i32 1
  %32 = load ptr, ptr %31, align 8, !tbaa !21
  %33 = icmp eq ptr %32, null
  br i1 %33, label %34, label %35

34:                                               ; preds = %27
  store i32 6, ptr %5, align 4
  br label %46

35:                                               ; preds = %27
  %36 = load ptr, ptr %6, align 8, !tbaa !9
  %37 = getelementptr inbounds nuw %struct.tsi_frame_protector, ptr %36, i32 0, i32 0
  %38 = load ptr, ptr %37, align 8, !tbaa !16
  %39 = getelementptr inbounds nuw %struct.tsi_frame_protector_vtable, ptr %38, i32 0, i32 1
  %40 = load ptr, ptr %39, align 8, !tbaa !21
  %41 = load ptr, ptr %6, align 8, !tbaa !9
  %42 = load ptr, ptr %7, align 8, !tbaa !12
  %43 = load ptr, ptr %8, align 8, !tbaa !14
  %44 = load ptr, ptr %9, align 8, !tbaa !14
  %45 = call noundef i32 %40(ptr noundef %41, ptr noundef %42, ptr noundef %43, ptr noundef %44)
  store i32 %45, ptr %5, align 4
  br label %46

46:                                               ; preds = %35, %34, %26
  %47 = load i32, ptr %5, align 4
  ret i32 %47
}