; Function Attrs: mustprogress uwtable
define noundef i32 @_Z33tsi_frame_protector_protect_flushP19tsi_frame_protectorPhPmS2_(ptr noundef %0, ptr noundef %1, ptr noundef %2, ptr noundef %3) local_unnamed_addr #4 {
  %5 = icmp eq ptr %0, null
  br i1 %5, label %18, label %6

6:                                                ; preds = %4
  %7 = load ptr, ptr %0, align 8, !tbaa !3
  %8 = icmp eq ptr %7, null
  %9 = icmp eq ptr %1, null
  %or.cond = or i1 %9, %8
  %10 = icmp eq ptr %2, null
  %or.cond3 = or i1 %10, %or.cond
  %11 = icmp eq ptr %3, null
  %or.cond5 = or i1 %11, %or.cond3
  br i1 %or.cond5, label %18, label %12

12:                                               ; preds = %6
  %13 = getelementptr inbounds nuw i8, ptr %7, i64 8
  %14 = load ptr, ptr %13, align 8, !tbaa !11
  %15 = icmp eq ptr %14, null
  br i1 %15, label %18, label %16

16:                                               ; preds = %12
  %17 = tail call noundef i32 %14(ptr noundef nonnull %0, ptr noundef nonnull %1, ptr noundef nonnull %2, ptr noundef nonnull %3)
  br label %18

18:                                               ; preds = %12, %4, %6, %16
  %.0 = phi i32 [ %17, %16 ], [ 2, %6 ], [ 2, %4 ], [ 6, %12 ]
  ret i32 %.0
}